; Function Attrs: nounwind uwtable
define ptr @l_Lean_Meta_foldAncestors___rarg___boxed(ptr noundef %0, ptr noundef %1, ptr noundef %2, ptr noundef %3, ptr readnone captures(none) %4, ptr noundef %5, ptr noundef %6, ptr noundef %7, ptr noundef %8) #0 {
  %10 = tail call ptr @l_Lean_SubExpr_Pos_toArray(ptr noundef %7) #5
  %11 = tail call ptr @lean_array_to_list(ptr noundef %10) #5
  %12 = load ptr, ptr @l___private_Lean_Meta_ExprLens_0__Lean_Meta_viewAux___rarg___lambda__3___closed__1, align 8, !tbaa !9
  %13 = tail call ptr @l___private_Lean_Meta_ExprLens_0__Lean_Meta_foldAncestorsAux___rarg(ptr noundef %0, ptr noundef %1, ptr noundef %2, ptr noundef %3, ptr nonnull poison, ptr noundef %5, ptr noundef %6, ptr noundef %11, ptr noundef %12, ptr noundef %8)
  %14 = ptrtoint ptr %7 to i64
  %15 = and i64 %14, 1
  %.not = icmp eq i64 %15, 0
  br i1 %.not, label %16, label %lean_dec.exit

16:                                               ; preds = %9
  %17 = load i32, ptr %7, align 4, !tbaa !4
  %18 = icmp sgt i32 %17, 1
  br i1 %18, label %19, label %21, !prof !13

19:                                               ; preds = %16
  %20 = add nsw i32 %17, -1
  store i32 %20, ptr %7, align 4, !tbaa !4
  br label %lean_dec.exit

21:                                               ; preds = %16
  %.not.i = icmp eq i32 %17, 0
  br i1 %.not.i, label %lean_dec.exit, label %22

22:                                               ; preds = %21
  tail call void @lean_dec_ref_cold(ptr noundef nonnull %7) #5
  br label %lean_dec.exit

lean_dec.exit:                                    ; preds = %22, %21, %19, %9
  ret ptr %13
}